target datalayout = "e-m:e-p270:32:32-p271:32:32-p272:64:64-i64:64-i128:128-f80:128-n8:16:32:64-S128"
target triple = "x86_64-pc-linux-gnu"

%struct._zval_struct = type { %union._zend_value, %union.anon, %union.anon.2 }
%union._zend_value = type { i64 }
%union.anon = type { i32 }
%union.anon.2 = type { i32 }
%struct.anon.7 = type { i8, [3 x i8], i32, ptr, ptr, ptr, i32, i32, ptr, ptr, ptr, ptr, i32, ptr }
%struct._zend_internal_function = type { i8, [3 x i8], i32, ptr, ptr, ptr, i32, i32, ptr, ptr, ptr, ptr, i32, ptr, ptr, ptr, ptr, [6 x ptr] }

; Function Attrs: nounwind uwtable
define internal i32 @clean_module_function(ptr noundef %0, ptr noundef %1) #0 {
  %3 = alloca i32, align 4
  %4 = alloca ptr, align 8
  %5 = alloca ptr, align 8
  %6 = alloca ptr, align 8
  %7 = alloca ptr, align 8
  %8 = alloca i32, align 4
  store ptr %0, ptr %4, align 8, !tbaa !8
  store ptr %1, ptr %5, align 8, !tbaa !102
  call void @llvm.lifetime.start.p0(i64 8, ptr %6) #21
  %9 = load ptr, ptr %4, align 8, !tbaa !8
  %10 = getelementptr inbounds nuw %struct._zval_struct, ptr %9, i32 0, i32 0
  %11 = load ptr, ptr %10, align 8, !tbaa !44
  store ptr %11, ptr %6, align 8, !tbaa !77
  call void @llvm.lifetime.start.p0(i64 8, ptr %7) #21
  %12 = load ptr, ptr %5, align 8, !tbaa !102
  store ptr %12, ptr %7, align 8, !tbaa !173
  %13 = load ptr, ptr %6, align 8, !tbaa !77
  %14 = getelementptr inbounds nuw %struct.anon.7, ptr %13, i32 0, i32 0
  %15 = load i8, ptr %14, align 8, !tbaa !44
  %16 = zext i8 %15 to i32
  %17 = icmp eq i32 %16, 1
  br i1 %17, label %18, label %25

18:                                               ; preds = %2
  %19 = load ptr, ptr %6, align 8, !tbaa !77
  %20 = getelementptr inbounds nuw %struct._zend_internal_function, ptr %19, i32 0, i32 15
  %21 = load ptr, ptr %20, align 8, !tbaa !44
  %22 = load ptr, ptr %7, align 8, !tbaa !173
  %23 = icmp eq ptr %21, %22
  br i1 %23, label %24, label %25

24:                                               ; preds = %18
  store i32 1, ptr %3, align 4
  store i32 1, ptr %8, align 4
  br label %26

25:                                               ; preds = %18, %2
  store i32 0, ptr %3, align 4
  store i32 1, ptr %8, align 4
  br label %26

26:                                               ; preds = %25, %24
  call void @llvm.lifetime.end.p0(i64 8, ptr %7) #21
  call void @llvm.lifetime.end.p0(i64 8, ptr %6) #21
  %27 = load i32, ptr %3, align 4
  ret i32 %27
}