; Function Attrs: mustprogress nofree norecurse nosync nounwind willreturn memory(read, inaccessiblemem: none) uwtable
define internal range(i32 0, 2) i32 @clean_module_function(ptr noundef readonly captures(none) %0, ptr noundef readnone captures(address) %1) #4 {
  %3 = load ptr, ptr %0, align 8, !tbaa !42
  %4 = load i8, ptr %3, align 8, !tbaa !42
  %5 = icmp eq i8 %4, 1
  br i1 %5, label %6, label %10

6:                                                ; preds = %2
  %7 = getelementptr inbounds nuw i8, ptr %3, i64 96
  %8 = load ptr, ptr %7, align 8, !tbaa !42
  %9 = icmp eq ptr %8, %1
  br i1 %9, label %11, label %10

10:                                               ; preds = %6, %2
  br label %11

11:                                               ; preds = %6, %10
  %.0 = phi i32 [ 0, %10 ], [ 1, %6 ]
  ret i32 %.0
}